target datalayout = "e-m:e-p270:32:32-p271:32:32-p272:64:64-i64:64-i128:128-f80:128-n8:16:32:64-S128"
target triple = "x86_64-pc-linux-gnu"

%struct.Type = type { i32, i32, i32, i8, i8, ptr, ptr, ptr, ptr, i32, ptr, ptr, ptr, i8, i8, ptr, ptr, i8, ptr }

@.str.210 = private unnamed_addr constant [24 x i8] c"  movss (%%rax), %%xmm0\00", align 1
@.str.211 = private unnamed_addr constant [24 x i8] c"  movsd (%%rax), %%xmm0\00", align 1
@.str.212 = private unnamed_addr constant [15 x i8] c"  fldt (%%rax)\00", align 1
@.str.213 = private unnamed_addr constant [5 x i8] c"movz\00", align 1
@.str.214 = private unnamed_addr constant [5 x i8] c"movs\00", align 1
@.str.215 = private unnamed_addr constant [22 x i8] c"  %sbl (%%rax), %%eax\00", align 1
@.str.216 = private unnamed_addr constant [22 x i8] c"  %swl (%%rax), %%eax\00", align 1
@.str.217 = private unnamed_addr constant [24 x i8] c"  movsxd (%%rax), %%rax\00", align 1
@.str.218 = private unnamed_addr constant [21 x i8] c"  mov (%%rax), %%rax\00", align 1

; Function Attrs: nounwind uwtable
define internal void @load(ptr noundef %0) #0 {
  %2 = alloca ptr, align 8
  %3 = alloca ptr, align 8
  store ptr %0, ptr %2, align 8, !tbaa !37
  %4 = load ptr, ptr %2, align 8, !tbaa !37
  %5 = getelementptr inbounds nuw %struct.Type, ptr %4, i32 0, i32 0
  %6 = load i32, ptr %5, align 8, !tbaa !38
  switch i32 %6, label %11 [
    i32 12, label %7
    i32 14, label %7
    i32 15, label %7
    i32 11, label %7
    i32 13, label %7
    i32 6, label %8
    i32 7, label %9
    i32 8, label %10
  ]

7:                                                ; preds = %1, %1, %1, %1, %1
  br label %40

8:                                                ; preds = %1
  call void (ptr, ...) @println(ptr noundef @.str.210)
  br label %40

9:                                                ; preds = %1
  call void (ptr, ...) @println(ptr noundef @.str.211)
  br label %40

10:                                               ; preds = %1
  call void (ptr, ...) @println(ptr noundef @.str.212)
  br label %40

11:                                               ; preds = %1
  call void @llvm.lifetime.start.p0(i64 8, ptr %3) #8
  %12 = load ptr, ptr %2, align 8, !tbaa !37
  %13 = getelementptr inbounds nuw %struct.Type, ptr %12, i32 0, i32 3
  %14 = load i8, ptr %13, align 4, !tbaa !121, !range !33, !noundef !34
  %15 = trunc i8 %14 to i1
  %16 = select i1 %15, ptr @.str.213, ptr @.str.214
  store ptr %16, ptr %3, align 8, !tbaa !23
  %17 = load ptr, ptr %2, align 8, !tbaa !37
  %18 = getelementptr inbounds nuw %struct.Type, ptr %17, i32 0, i32 1
  %19 = load i32, ptr %18, align 4, !tbaa !41
  %20 = icmp eq i32 %19, 1
  br i1 %20, label %21, label %23

21:                                               ; preds = %11
  %22 = load ptr, ptr %3, align 8, !tbaa !23
  call void (ptr, ...) @println(ptr noundef @.str.215, ptr noundef %22)
  br label %39

23:                                               ; preds = %11
  %24 = load ptr, ptr %2, align 8, !tbaa !37
  %25 = getelementptr inbounds nuw %struct.Type, ptr %24, i32 0, i32 1
  %26 = load i32, ptr %25, align 4, !tbaa !41
  %27 = icmp eq i32 %26, 2
  br i1 %27, label %28, label %30

28:                                               ; preds = %23
  %29 = load ptr, ptr %3, align 8, !tbaa !23
  call void (ptr, ...) @println(ptr noundef @.str.216, ptr noundef %29)
  br label %38

30:                                               ; preds = %23
  %31 = load ptr, ptr %2, align 8, !tbaa !37
  %32 = getelementptr inbounds nuw %struct.Type, ptr %31, i32 0, i32 1
  %33 = load i32, ptr %32, align 4, !tbaa !41
  %34 = icmp eq i32 %33, 4
  br i1 %34, label %35, label %36

35:                                               ; preds = %30
  call void (ptr, ...) @println(ptr noundef @.str.217)
  br label %37

36:                                               ; preds = %30
  call void (ptr, ...) @println(ptr noundef @.str.218)
  br label %37

37:                                               ; preds = %36, %35
  br label %38

38:                                               ; preds = %37, %28
  br label %39

39:                                               ; preds = %38, %21
  call void @llvm.lifetime.end.p0(i64 8, ptr %3) #8
  br label %40

40:                                               ; preds = %39, %10, %9, %8, %7
  ret void
}