; Function Attrs: nofree nounwind uwtable
define internal fastcc void @load(ptr noundef readonly captures(none) %0) unnamed_addr #4 {
  %2 = load i32, ptr %0, align 8, !tbaa !29
  switch i32 %2, label %6 [
    i32 12, label %17
    i32 14, label %17
    i32 15, label %17
    i32 11, label %17
    i32 13, label %17
    i32 6, label %3
    i32 7, label %4
    i32 8, label %5
  ]

3:                                                ; preds = %1
  tail call void (ptr, ...) @println(ptr noundef nonnull @.str.210)
  br label %17

4:                                                ; preds = %1
  tail call void (ptr, ...) @println(ptr noundef nonnull @.str.211)
  br label %17

5:                                                ; preds = %1
  tail call void (ptr, ...) @println(ptr noundef nonnull @.str.212)
  br label %17

6:                                                ; preds = %1
  %7 = getelementptr inbounds nuw i8, ptr %0, i64 12
  %8 = load i8, ptr %7, align 4, !tbaa !113, !range !25, !noundef !26
  %9 = trunc nuw i8 %8 to i1
  %10 = select i1 %9, ptr @.str.213, ptr @.str.214
  %11 = getelementptr inbounds nuw i8, ptr %0, i64 4
  %12 = load i32, ptr %11, align 4, !tbaa !32
  switch i32 %12, label %16 [
    i32 1, label %13
    i32 2, label %14
    i32 4, label %15
  ]

13:                                               ; preds = %6
  tail call void (ptr, ...) @println(ptr noundef nonnull @.str.215, ptr noundef nonnull %10)
  br label %17

14:                                               ; preds = %6
  tail call void (ptr, ...) @println(ptr noundef nonnull @.str.216, ptr noundef nonnull %10)
  br label %17

15:                                               ; preds = %6
  tail call void (ptr, ...) @println(ptr noundef nonnull @.str.217)
  br label %17

16:                                               ; preds = %6
  tail call void (ptr, ...) @println(ptr noundef nonnull @.str.218)
  br label %17

17:                                               ; preds = %13, %15, %16, %14, %1, %1, %1, %1, %1, %5, %4, %3
  ret void
}